; Function Attrs: nounwind uwtable
define void @_ZTv0_n24_N5arrow2io16FileOutputStreamD1Ev(ptr noundef %this) unnamed_addr #7 align 2 personality ptr @__gxx_personality_v0 {
entry:
  %0 = load ptr, ptr %this, align 8
  %1 = getelementptr inbounds i8, ptr %0, i64 -24
  %2 = load i64, ptr %1, align 8
  %3 = getelementptr inbounds i8, ptr %this, i64 %2
  store ptr getelementptr inbounds ({ [11 x ptr], [15 x ptr] }, ptr @_ZTVN5arrow2io16FileOutputStreamE, i64 0, i32 0, i64 3), ptr %3, align 8
  %add.ptr.i.i = getelementptr inbounds i8, ptr %3, i64 16
  store ptr getelementptr inbounds ({ [11 x ptr], [15 x ptr] }, ptr @_ZTVN5arrow2io16FileOutputStreamE, i64 0, i32 1, i64 8), ptr %add.ptr.i.i, align 8
  invoke void @_ZN5arrow2io8internal19CloseFromDestructorEPNS0_13FileInterfaceE(ptr noundef nonnull %add.ptr.i.i)
          to label %invoke.cont.i.i unwind label %terminate.lpad.i.i

invoke.cont.i.i:                                  ; preds = %entry
  %impl_.i.i = getelementptr inbounds i8, ptr %3, i64 8
  %4 = load ptr, ptr %impl_.i.i, align 8
  %cmp.not.i.i.i = icmp eq ptr %4, null
  br i1 %cmp.not.i.i.i, label %_ZN5arrow2io16FileOutputStreamD1Ev.exit, label %_ZNKSt14default_deleteIN5arrow2io16FileOutputStream20FileOutputStreamImplEEclEPS3_.exit.i.i.i

_ZNKSt14default_deleteIN5arrow2io16FileOutputStream20FileOutputStreamImplEEclEPS3_.exit.i.i.i: ; preds = %invoke.cont.i.i
  %fd_.i.i.i.i.i.i = getelementptr inbounds i8, ptr %4, i64 48
  tail call void @_ZN5arrow8internal14FileDescriptorD1Ev(ptr noundef nonnull align 4 dereferenceable(4) %fd_.i.i.i.i.i.i) #22
  tail call void @_ZN5arrow8internal16PlatformFilenameD1Ev(ptr noundef nonnull align 8 dereferenceable(8) %4) #22
  tail call void @_ZdlPv(ptr noundef nonnull %4) #24
  br label %_ZN5arrow2io16FileOutputStreamD1Ev.exit

terminate.lpad.i.i:                               ; preds = %entry
  %5 = landingpad { ptr, i32 }
          catch ptr null
  %6 = extractvalue { ptr, i32 } %5, 0
  tail call void @__clang_call_terminate(ptr %6) #25
  unreachable

_ZN5arrow2io16FileOutputStreamD1Ev.exit:          ; preds = %invoke.cont.i.i, %_ZNKSt14default_deleteIN5arrow2io16FileOutputStream20FileOutputStreamImplEEclEPS3_.exit.i.i.i
  store ptr null, ptr %impl_.i.i, align 8
  tail call void @_ZN5arrow2io13FileInterfaceD2Ev(ptr noundef nonnull align 8 dereferenceable(28) %add.ptr.i.i) #22
  ret void
}